; ModuleID = '46/507.c'
source_filename = "46/507.c"
target datalayout = "e-m:e-p270:32:32-p271:32:32-p272:64:64-i64:64-f80:128-n8:16:32:64-S128"
target triple = "x86_64-pc-linux-gnu"

@.str = private unnamed_addr constant [6 x i8] c"%d %d\00", align 1
@.str.1 = private unnamed_addr constant [3 x i8] c"%d\00", align 1
@.str.2 = private unnamed_addr constant [4 x i8] c"%d\0A\00", align 1

; Function Attrs: noinline nounwind uwtable
define dso_local i32 @main() #0 {
  %1 = alloca i32, align 4
  %2 = alloca i32, align 4
  %3 = alloca i32, align 4
  %4 = alloca [100 x [100 x i32]], align 16
  %5 = alloca i32, align 4
  %6 = alloca i32, align 4
  %7 = alloca i32, align 4
  %8 = alloca i32, align 4
  %9 = alloca i32, align 4
  %10 = alloca i32, align 4
  %11 = alloca i32, align 4
  %12 = alloca i32, align 4
  %13 = alloca i32, align 4
  %14 = alloca i32, align 4
  %15 = alloca i32, align 4
  %16 = alloca i32, align 4
  store i32 0, i32* %1, align 4
  %17 = call i32 (i8*, ...) @__isoc99_scanf(i8* getelementptr inbounds ([6 x i8], [6 x i8]* @.str, i64 0, i64 0), i32* %2, i32* %3)
  store i32 0, i32* %5, align 4
  br label %18

18:                                               ; preds = %39, %0
  %19 = load i32, i32* %5, align 4
  %20 = load i32, i32* %2, align 4
  %21 = icmp slt i32 %19, %20
  br i1 %21, label %22, label %42

22:                                               ; preds = %18
  store i32 0, i32* %6, align 4
  br label %23

23:                                               ; preds = %35, %22
  %24 = load i32, i32* %6, align 4
  %25 = load i32, i32* %3, align 4
  %26 = icmp slt i32 %24, %25
  br i1 %26, label %27, label %38

27:                                               ; preds = %23
  %28 = load i32, i32* %5, align 4
  %29 = sext i32 %28 to i64
  %30 = getelementptr inbounds [100 x [100 x i32]], [100 x [100 x i32]]* %4, i64 0, i64 %29
  %31 = load i32, i32* %6, align 4
  %32 = sext i32 %31 to i64
  %33 = getelementptr inbounds [100 x i32], [100 x i32]* %30, i64 0, i64 %32
  %34 = call i32 (i8*, ...) @__isoc99_scanf(i8* getelementptr inbounds ([3 x i8], [3 x i8]* @.str.1, i64 0, i64 0), i32* %33)
  br label %35

35:                                               ; preds = %27
  %36 = load i32, i32* %6, align 4
  %37 = add nsw i32 %36, 1
  store i32 %37, i32* %6, align 4
  br label %23

38:                                               ; preds = %23
  br label %39

39:                                               ; preds = %38
  %40 = load i32, i32* %5, align 4
  %41 = add nsw i32 %40, 1
  store i32 %41, i32* %5, align 4
  br label %18

42:                                               ; preds = %18
  store i32 0, i32* %7, align 4
  %43 = load i32, i32* %2, align 4
  %44 = sub nsw i32 %43, 1
  store i32 %44, i32* %8, align 4
  store i32 0, i32* %9, align 4
  %45 = load i32, i32* %3, align 4
  %46 = sub nsw i32 %45, 1
  store i32 %46, i32* %10, align 4
  br label %47

47:                                               ; preds = %129, %42
  %48 = load i32, i32* %7, align 4
  %49 = load i32, i32* %8, align 4
  %50 = icmp slt i32 %48, %49
  br i1 %50, label %51, label %55

51:                                               ; preds = %47
  %52 = load i32, i32* %9, align 4
  %53 = load i32, i32* %10, align 4
  %54 = icmp slt i32 %52, %53
  br label %55

55:                                               ; preds = %51, %47
  %56 = phi i1 [ false, %47 ], [ %54, %51 ]
  br i1 %56, label %57, label %138

57:                                               ; preds = %55
  %58 = load i32, i32* %9, align 4
  store i32 %58, i32* %11, align 4
  br label %59

59:                                               ; preds = %72, %57
  %60 = load i32, i32* %11, align 4
  %61 = load i32, i32* %10, align 4
  %62 = icmp slt i32 %60, %61
  br i1 %62, label %63, label %75

63:                                               ; preds = %59
  %64 = load i32, i32* %7, align 4
  %65 = sext i32 %64 to i64
  %66 = getelementptr inbounds [100 x [100 x i32]], [100 x [100 x i32]]* %4, i64 0, i64 %65
  %67 = load i32, i32* %11, align 4
  %68 = sext i32 %67 to i64
  %69 = getelementptr inbounds [100 x i32], [100 x i32]* %66, i64 0, i64 %68
  %70 = load i32, i32* %69, align 4
  %71 = call i32 (i8*, ...) @printf(i8* getelementptr inbounds ([4 x i8], [4 x i8]* @.str.2, i64 0, i64 0), i32 %70)
  br label %72

72:                                               ; preds = %63
  %73 = load i32, i32* %11, align 4
  %74 = add nsw i32 %73, 1
  store i32 %74, i32* %11, align 4
  br label %59

75:                                               ; preds = %59
  %76 = load i32, i32* %7, align 4
  store i32 %76, i32* %12, align 4
  br label %77

77:                                               ; preds = %90, %75
  %78 = load i32, i32* %12, align 4
  %79 = load i32, i32* %8, align 4
  %80 = icmp slt i32 %78, %79
  br i1 %80, label %81, label %93

81:                                               ; preds = %77
  %82 = load i32, i32* %12, align 4
  %83 = sext i32 %82 to i64
  %84 = getelementptr inbounds [100 x [100 x i32]], [100 x [100 x i32]]* %4, i64 0, i64 %83
  %85 = load i32, i32* %10, align 4
  %86 = sext i32 %85 to i64
  %87 = getelementptr inbounds [100 x i32], [100 x i32]* %84, i64 0, i64 %86
  %88 = load i32, i32* %87, align 4
  %89 = call i32 (i8*, ...) @printf(i8* getelementptr inbounds ([4 x i8], [4 x i8]* @.str.2, i64 0, i64 0), i32 %88)
  br label %90

90:                                               ; preds = %81
  %91 = load i32, i32* %12, align 4
  %92 = add nsw i32 %91, 1
  store i32 %92, i32* %12, align 4
  br label %77

93:                                               ; preds = %77
  %94 = load i32, i32* %10, align 4
  store i32 %94, i32* %13, align 4
  br label %95

95:                                               ; preds = %108, %93
  %96 = load i32, i32* %13, align 4
  %97 = load i32, i32* %9, align 4
  %98 = icmp sgt i32 %96, %97
  br i1 %98, label %99, label %111

99:                                               ; preds = %95
  %100 = load i32, i32* %8, align 4
  %101 = sext i32 %100 to i64
  %102 = getelementptr inbounds [100 x [100 x i32]], [100 x [100 x i32]]* %4, i64 0, i64 %101
  %103 = load i32, i32* %13, align 4
  %104 = sext i32 %103 to i64
  %105 = getelementptr inbounds [100 x i32], [100 x i32]* %102, i64 0, i64 %104
  %106 = load i32, i32* %105, align 4
  %107 = call i32 (i8*, ...) @printf(i8* getelementptr inbounds ([4 x i8], [4 x i8]* @.str.2, i64 0, i64 0), i32 %106)
  br label %108

108:                                              ; preds = %99
  %109 = load i32, i32* %13, align 4
  %110 = add nsw i32 %109, -1
  store i32 %110, i32* %13, align 4
  br label %95

111:                                              ; preds = %95
  %112 = load i32, i32* %8, align 4
  store i32 %112, i32* %14, align 4
  br label %113

113:                                              ; preds = %126, %111
  %114 = load i32, i32* %14, align 4
  %115 = load i32, i32* %7, align 4
  %116 = icmp sgt i32 %114, %115
  br i1 %116, label %117, label %129

117:                                              ; preds = %113
  %118 = load i32, i32* %14, align 4
  %119 = sext i32 %118 to i64
  %120 = getelementptr inbounds [100 x [100 x i32]], [100 x [100 x i32]]* %4, i64 0, i64 %119
  %121 = load i32, i32* %9, align 4
  %122 = sext i32 %121 to i64
  %123 = getelementptr inbounds [100 x i32], [100 x i32]* %120, i64 0, i64 %122
  %124 = load i32, i32* %123, align 4
  %125 = call i32 (i8*, ...) @printf(i8* getelementptr inbounds ([4 x i8], [4 x i8]* @.str.2, i64 0, i64 0), i32 %124)
  br label %126

126:                                              ; preds = %117
  %127 = load i32, i32* %14, align 4
  %128 = add nsw i32 %127, -1
  store i32 %128, i32* %14, align 4
  br label %113

129:                                              ; preds = %113
  %130 = load i32, i32* %7, align 4
  %131 = add nsw i32 %130, 1
  store i32 %131, i32* %7, align 4
  %132 = load i32, i32* %8, align 4
  %133 = add nsw i32 %132, -1
  store i32 %133, i32* %8, align 4
  %134 = load i32, i32* %9, align 4
  %135 = add nsw i32 %134, 1
  store i32 %135, i32* %9, align 4
  %136 = load i32, i32* %10, align 4
  %137 = add nsw i32 %136, -1
  store i32 %137, i32* %10, align 4
  br label %47

138:                                              ; preds = %55
  %139 = load i32, i32* %7, align 4
  %140 = load i32, i32* %8, align 4
  %141 = icmp eq i32 %139, %140
  br i1 %141, label %142, label %165

142:                                              ; preds = %138
  %143 = load i32, i32* %9, align 4
  %144 = load i32, i32* %10, align 4
  %145 = icmp ne i32 %143, %144
  br i1 %145, label %146, label %165

146:                                              ; preds = %142
  %147 = load i32, i32* %7, align 4
  store i32 %147, i32* %15, align 4
  br label %148

148:                                              ; preds = %161, %146
  %149 = load i32, i32* %15, align 4
  %150 = load i32, i32* %10, align 4
  %151 = icmp sle i32 %149, %150
  br i1 %151, label %152, label %164

152:                                              ; preds = %148
  %153 = load i32, i32* %7, align 4
  %154 = sext i32 %153 to i64
  %155 = getelementptr inbounds [100 x [100 x i32]], [100 x [100 x i32]]* %4, i64 0, i64 %154
  %156 = load i32, i32* %15, align 4
  %157 = sext i32 %156 to i64
  %158 = getelementptr inbounds [100 x i32], [100 x i32]* %155, i64 0, i64 %157
  %159 = load i32, i32* %158, align 4
  %160 = call i32 (i8*, ...) @printf(i8* getelementptr inbounds ([4 x i8], [4 x i8]* @.str.2, i64 0, i64 0), i32 %159)
  br label %161

161:                                              ; preds = %152
  %162 = load i32, i32* %15, align 4
  %163 = add nsw i32 %162, 1
  store i32 %163, i32* %15, align 4
  br label %148

164:                                              ; preds = %148
  br label %165

165:                                              ; preds = %164, %142, %138
  %166 = load i32, i32* %9, align 4
  %167 = load i32, i32* %10, align 4
  %168 = icmp eq i32 %166, %167
  br i1 %168, label %169, label %192

169:                                              ; preds = %165
  %170 = load i32, i32* %7, align 4
  %171 = load i32, i32* %8, align 4
  %172 = icmp ne i32 %170, %171
  br i1 %172, label %173, label %192

173:                                              ; preds = %169
  %174 = load i32, i32* %9, align 4
  store i32 %174, i32* %16, align 4
  br label %175

175:                                              ; preds = %188, %173
  %176 = load i32, i32* %16, align 4
  %177 = load i32, i32* %8, align 4
  %178 = icmp sle i32 %176, %177
  br i1 %178, label %179, label %191

179:                                              ; preds = %175
  %180 = load i32, i32* %16, align 4
  %181 = sext i32 %180 to i64
  %182 = getelementptr inbounds [100 x [100 x i32]], [100 x [100 x i32]]* %4, i64 0, i64 %181
  %183 = load i32, i32* %9, align 4
  %184 = sext i32 %183 to i64
  %185 = getelementptr inbounds [100 x i32], [100 x i32]* %182, i64 0, i64 %184
  %186 = load i32, i32* %185, align 4
  %187 = call i32 (i8*, ...) @printf(i8* getelementptr inbounds ([4 x i8], [4 x i8]* @.str.2, i64 0, i64 0), i32 %186)
  br label %188

188:                                              ; preds = %179
  %189 = load i32, i32* %16, align 4
  %190 = add nsw i32 %189, 1
  store i32 %190, i32* %16, align 4
  br label %175

191:                                              ; preds = %175
  br label %192

192:                                              ; preds = %191, %169, %165
  %193 = load i32, i32* %7, align 4
  %194 = load i32, i32* %8, align 4
  %195 = icmp eq i32 %193, %194
  br i1 %195, label %196, label %209

196:                                              ; preds = %192
  %197 = load i32, i32* %9, align 4
  %198 = load i32, i32* %10, align 4
  %199 = icmp eq i32 %197, %198
  br i1 %199, label %200, label %209

200:                                              ; preds = %196
  %201 = load i32, i32* %7, align 4
  %202 = sext i32 %201 to i64
  %203 = getelementptr inbounds [100 x [100 x i32]], [100 x [100 x i32]]* %4, i64 0, i64 %202
  %204 = load i32, i32* %10, align 4
  %205 = sext i32 %204 to i64
  %206 = getelementptr inbounds [100 x i32], [100 x i32]* %203, i64 0, i64 %205
  %207 = load i32, i32* %206, align 4
  %208 = call i32 (i8*, ...) @printf(i8* getelementptr inbounds ([4 x i8], [4 x i8]* @.str.2, i64 0, i64 0), i32 %207)
  br label %209

209:                                              ; preds = %200, %196, %192
  ret i32 0
}

declare dso_local i32 @__isoc99_scanf(i8*, ...) #1

declare dso_local i32 @printf(i8*, ...) #1


!llvm.module.flags = !{!0}
!llvm.ident = !{!1}

!0 = !{i32 1, !"wchar_size", i32 4}
!1 = !{!"clang version 10.0.0-4ubuntu1 "}
